(lp1
(lp2
I24
aI0
aI0
aa(lp3
I7
aI0
aI0
aa(lp4
I11
aI0
aI0
aa(lp5
I14
aI0
aI0
aa(lp6
I14
aI0
aI0
aa(lp7
I22
aI0
aI0
aa(lp8
I13
aI0
aI0
aa(lp9
I17
aI0
aI0
aa(lp10
I27
aI0
aI0
aa(lp11
I11
aI0
aI0
aa(lp12
I20
aI0
aI0
aa(lp13
I24
aI0
aI0
aa(lp14
I15
aI0
aI0
aa(lp15
I21
aI0
aI0
aa(lp16
I8
aI0
aI0
aa(lp17
I11
aI0
aI0
aa(lp18
I33
aI0
aI0
aa(lp19
I21
aI0
aI0
aa(lp20
I16
aI0
aI0
aa(lp21
I17
aI0
aI0
aa(lp22
I15
aI0
aI0
aa(lp23
I13
aI0
aI0
aa(lp24
I26
aI0
aI0
aa(lp25
I12
aI0
aI0
aa(lp26
I9
aI0
aI0
aa(lp27
I9
aI0
aI0
aa(lp28
I14
aI0
aI0
aa(lp29
I13
aI0
aI0
aa(lp30
I8
aI0
aI0
aa(lp31
I14
aI0
aI0
aa(lp32
I21
aI0
aI0
aa(lp33
I13
aI0
aI0
aa(lp34
I10
aI0
aI0
aa(lp35
I13
aI0
aI0
aa(lp36
I9
aI0
aI0
aa(lp37
I16
aI0
aI0
aa(lp38
I21
aI0
aI0
aa(lp39
I8
aI0
aI0
aa(lp40
I18
aI0
aI0
aa(lp41
I9
aI0
aI0
aa(lp42
I18
aI0
aI0
aa(lp43
I19
aI0
aI0
aa(lp44
I10
aI0
aI0
aa(lp45
I20
aI0
aI0
aa(lp46
I8
aI0
aI0
aa(lp47
I15
aI0
aI0
aa(lp48
I12
aI0
aI0
aa(lp49
I10
aI0
aI0
aa(lp50
I25
aI0
aI0
aa(lp51
I10
aI0
aI0
aa(lp52
I12
aI0
aI0
aa(lp53
I7
aI0
aI0
aa(lp54
I10
aI0
aI0
aa(lp55
I9
aI0
aI0
aa(lp56
I4
aI0
aI0
aa(lp57
I12
aI0
aI0
aa(lp58
I14
aI0
aI0
aa(lp59
I9
aI0
aI0
aa(lp60
I22
aI0
aI0
aa(lp61
I9
aI0
aI0
aa(lp62
I15
aI0
aI0
aa(lp63
I13
aI0
aI0
aa(lp64
I13
aI0
aI0
aa(lp65
I11
aI0
aI0
aa(lp66
I10
aI0
aI0
aa(lp67
I26
aI0
aI0
aa(lp68
I15
aI0
aI0
aa(lp69
I15
aI0
aI0
aa(lp70
I11
aI0
aI0
aa(lp71
I13
aI0
aI0
aa(lp72
I14
aI0
aI0
aa(lp73
I10
aI0
aI0
aa(lp74
I8
aI0
aI0
aa(lp75
I13
aI0
aI0
aa(lp76
I10
aI0
aI0
aa(lp77
I15
aI0
aI0
aa(lp78
I12
aI0
aI0
aa(lp79
I12
aI0
aI0
aa(lp80
I14
aI0
aI0
aa(lp81
I7
aI0
aI0
aa(lp82
I8
aI0
aI0
aa(lp83
I15
aI0
aI0
aa(lp84
I11
aI0
aI0
aa(lp85
I7
aI0
aI0
aa(lp86
I15
aI0
aI0
aa(lp87
I7
aI0
aI0
aa(lp88
I14
aI0
aI0
aa(lp89
I22
aI0
aI0
aa(lp90
I11
aI0
aI0
aa(lp91
I15
aI0
aI0
aa(lp92
I23
aI0
aI0
aa(lp93
I15
aI0
aI0
aa(lp94
I12
aI0
aI0
aa(lp95
I11
aI0
aI0
aa(lp96
I16
aI0
aI0
aa(lp97
I17
aI0
aI0
aa(lp98
I12
aI0
aI0
aa(lp99
I8
aI0
aI0
aa(lp100
I15
aI0
aI0
aa(lp101
I14
aI0
aI0
aa(lp102
I12
aI0
aI0
aa(lp103
I7
aI0
aI0
aa(lp104
I8
aI0
aI0
aa(lp105
I37
aI0
aI0
aa(lp106
I15
aI0
aI0
aa(lp107
I13
aI0
aI0
aa(lp108
I14
aI0
aI0
aa(lp109
I13
aI0
aI0
aa(lp110
I24
aI0
aI0
aa(lp111
I14
aI0
aI0
aa(lp112
I5
aI0
aI0
aa(lp113
I9
aI0
aI0
aa(lp114
I20
aI0
aI0
aa(lp115
I12
aI0
aI0
aa(lp116
I14
aI0
aI0
aa(lp117
I17
aI0
aI0
aa(lp118
I14
aI0
aI0
aa(lp119
I13
aI0
aI0
aa(lp120
I25
aI0
aI0
aa(lp121
I11
aI0
aI0
aa(lp122
I22
aI0
aI0
aa(lp123
I17
aI0
aI0
aa(lp124
I15
aI0
aI0
aa(lp125
I10
aI0
aI0
aa(lp126
I8
aI0
aI0
aa(lp127
I11
aI0
aI0
aa(lp128
I13
aI0
aI0
aa(lp129
I7
aI0
aI0
aa(lp130
I18
aI0
aI0
aa(lp131
I18
aI0
aI0
aa(lp132
I16
aI0
aI0
aa(lp133
I13
aI0
aI0
aa(lp134
I10
aI0
aI0
aa(lp135
I11
aI0
aI0
aa(lp136
I8
aI0
aI0
aa(lp137
I12
aI0
aI0
aa(lp138
I13
aI0
aI0
aa(lp139
I10
aI0
aI0
aa(lp140
I15
aI0
aI0
aa(lp141
I16
aI0
aI0
aa(lp142
I14
aI0
aI0
aa(lp143
I6
aI0
aI0
aa(lp144
I15
aI0
aI0
aa(lp145
I24
aI0
aI0
aa(lp146
I15
aI0
aI0
aa(lp147
I10
aI0
aI0
aa(lp148
I18
aI0
aI0
aa(lp149
I19
aI0
aI0
aa(lp150
I20
aI0
aI0
aa(lp151
I22
aI0
aI0
aa(lp152
I12
aI0
aI0
aa(lp153
I15
aI0
aI0
aa(lp154
I18
aI0
aI0
aa(lp155
I18
aI0
aI0
aa(lp156
I12
aI0
aI0
aa(lp157
I10
aI0
aI0
aa(lp158
I22
aI0
aI0
aa(lp159
I27
aI0
aI0
aa(lp160
I11
aI0
aI0
aa(lp161
I15
aI0
aI0
aa(lp162
I11
aI0
aI0
aa(lp163
I12
aI0
aI0
aa(lp164
I11
aI0
aI0
aa(lp165
I47
aI0
aI0
aa(lp166
I10
aI0
aI0
aa(lp167
I11
aI0
aI0
aa(lp168
I29
aI0
aI0
aa(lp169
I34
aI0
aI0
aa(lp170
I11
aI0
aI0
aa(lp171
I8
aI0
aI0
aa(lp172
I15
aI0
aI0
aa(lp173
I6
aI0
aI0
aa(lp174
I23
aI0
aI0
aa(lp175
I10
aI0
aI0
aa(lp176
I7
aI0
aI0
aa(lp177
I10
aI0
aI0
aa(lp178
I16
aI0
aI0
aa(lp179
I12
aI0
aI0
aa(lp180
I14
aI0
aI0
aa(lp181
I10
aI0
aI0
aa(lp182
I27
aI0
aI0
aa(lp183
I14
aI0
aI0
aa(lp184
I11
aI0
aI0
aa(lp185
I39
aI0
aI0
aa(lp186
I15
aI0
aI0
aa(lp187
I9
aI0
aI0
aa(lp188
I11
aI0
aI0
aa(lp189
I16
aI0
aI0
aa(lp190
I14
aI0
aI0
aa(lp191
I14
aI0
aI0
aa(lp192
I9
aI0
aI0
aa(lp193
I22
aI0
aI0
aa(lp194
I18
aI0
aI0
aa(lp195
I12
aI0
aI0
aa(lp196
I11
aI0
aI0
aa(lp197
I11
aI0
aI0
aa(lp198
I15
aI0
aI0
aa(lp199
I16
aI0
aI0
aa(lp200
I32
aI0
aI0
aa(lp201
I12
aI0
aI0
aa(lp202
I25
aI0
aI0
aa(lp203
I16
aI0
aI0
aa(lp204
I11
aI0
aI0
aa(lp205
I17
aI0
aI0
aa(lp206
I8
aI0
aI0
aa(lp207
I11
aI0
aI0
aa(lp208
I31
aI0
aI0
aa(lp209
I5
aI0
aI0
aa(lp210
I9
aI0
aI0
aa(lp211
I13
aI0
aI0
aa(lp212
I15
aI0
aI0
aa(lp213
I7
aI0
aI0
aa(lp214
I10
aI0
aI0
aa(lp215
I11
aI0
aI0
aa(lp216
I9
aI0
aI0
aa(lp217
I6
aI0
aI0
aa(lp218
I20
aI0
aI0
aa(lp219
I10
aI0
aI0
aa(lp220
I15
aI0
aI0
aa(lp221
I14
aI0
aI0
aa(lp222
I13
aI0
aI0
aa(lp223
I19
aI0
aI0
aa(lp224
I13
aI0
aI0
aa(lp225
I8
aI0
aI0
aa(lp226
I9
aI0
aI0
aa(lp227
I15
aI0
aI0
aa(lp228
I16
aI0
aI0
aa(lp229
I9
aI0
aI0
aa(lp230
I18
aI0
aI0
aa(lp231
I16
aI0
aI0
aa(lp232
I10
aI0
aI0
aa(lp233
I12
aI0
aI0
aa(lp234
I12
aI0
aI0
aa(lp235
I10
aI0
aI0
aa(lp236
I17
aI0
aI0
aa(lp237
I15
aI0
aI0
aa(lp238
I11
aI0
aI0
aa(lp239
I9
aI0
aI0
aa(lp240
I29
aI0
aI0
aa(lp241
I9
aI0
aI0
aa(lp242
I11
aI0
aI0
aa(lp243
I19
aI0
aI0
aa(lp244
I39
aI0
aI0
aa(lp245
I13
aI0
aI0
aa(lp246
I14
aI0
aI0
aa(lp247
I10
aI0
aI0
aa(lp248
I14
aI0
aI0
aa(lp249
I10
aI0
aI0
aa(lp250
I16
aI0
aI0
aa(lp251
I11
aI0
aI0
aa(lp252
I22
aI0
aI0
aa(lp253
I20
aI0
aI0
aa(lp254
I29
aI0
aI0
aa(lp255
I21
aI0
aI0
aa(lp256
I13
aI0
aI0
aa(lp257
I21
aI0
aI0
aa(lp258
I15
aI0
aI0
aa(lp259
I16
aI0
aI0
aa(lp260
I16
aI0
aI0
aa(lp261
I13
aI0
aI0
aa(lp262
I25
aI0
aI0
aa(lp263
I12
aI0
aI0
aa(lp264
I36
aI0
aI0
aa(lp265
I21
aI0
aI0
aa(lp266
I15
aI0
aI0
aa(lp267
I17
aI0
aI0
aa(lp268
I17
aI0
aI0
aa(lp269
I23
aI0
aI0
aa(lp270
I14
aI0
aI0
aa(lp271
I14
aI0
aI0
aa(lp272
I17
aI0
aI0
aa(lp273
I16
aI0
aI0
aa(lp274
I17
aI0
aI0
aa(lp275
I26
aI0
aI0
aa(lp276
I25
aI0
aI0
aa(lp277
I12
aI0
aI0
aa(lp278
I15
aI0
aI0
aa(lp279
I24
aI0
aI0
aa(lp280
I11
aI0
aI0
aa(lp281
I7
aI0
aI0
aa(lp282
I16
aI0
aI0
aa(lp283
I19
aI0
aI0
aa(lp284
I15
aI0
aI0
aa(lp285
I8
aI0
aI0
aa(lp286
I9
aI0
aI0
aa(lp287
I18
aI0
aI0
aa(lp288
I23
aI0
aI0
aa(lp289
I13
aI0
aI0
aa(lp290
I18
aI0
aI0
aa(lp291
I14
aI0
aI0
aa(lp292
I10
aI0
aI0
aa(lp293
I38
aI0
aI0
aa(lp294
I31
aI0
aI0
aa(lp295
I10
aI0
aI0
aa(lp296
I18
aI0
aI0
aa(lp297
I13
aI0
aI0
aa(lp298
I12
aI0
aI0
aa(lp299
I13
aI0
aI0
aa(lp300
I15
aI0
aI0
aa(lp301
I14
aI0
aI0
aa(lp302
I9
aI0
aI0
aa(lp303
I27
aI0
aI0
aa(lp304
I26
aI0
aI0
aa(lp305
I26
aI0
aI0
aa(lp306
I22
aI0
aI0
aa(lp307
I11
aI0
aI0
aa(lp308
I9
aI0
aI0
aa(lp309
I18
aI0
aI0
aa(lp310
I14
aI0
aI0
aa(lp311
I12
aI0
aI0
aa(lp312
I12
aI0
aI0
aa(lp313
I8
aI0
aI0
aa(lp314
I28
aI0
aI0
aa(lp315
I12
aI0
aI0
aa(lp316
I17
aI0
aI0
aa(lp317
I22
aI0
aI0
aa(lp318
I15
aI0
aI0
aa(lp319
I9
aI0
aI0
aa(lp320
I11
aI0
aI0
aa(lp321
I11
aI0
aI0
aa(lp322
I37
aI0
aI0
aa(lp323
I11
aI0
aI0
aa(lp324
I9
aI0
aI0
aa(lp325
I21
aI0
aI0
aa(lp326
I11
aI0
aI0
aa(lp327
I10
aI0
aI0
aa(lp328
I12
aI0
aI0
aa(lp329
I15
aI0
aI0
aa(lp330
I9
aI0
aI0
aa(lp331
I17
aI0
aI0
aa(lp332
I18
aI0
aI0
aa(lp333
I12
aI0
aI0
aa(lp334
I14
aI0
aI0
aa(lp335
I28
aI0
aI0
aa(lp336
I18
aI0
aI0
aa(lp337
I24
aI0
aI0
aa(lp338
I13
aI0
aI0
aa(lp339
I8
aI0
aI0
aa(lp340
I25
aI0
aI0
aa(lp341
I11
aI0
aI0
aa(lp342
I14
aI0
aI0
aa(lp343
I12
aI0
aI0
aa(lp344
I9
aI0
aI0
aa(lp345
I21
aI0
aI0
aa(lp346
I12
aI0
aI0
aa(lp347
I11
aI0
aI0
aa(lp348
I15
aI0
aI0
aa(lp349
I11
aI0
aI0
aa(lp350
I14
aI0
aI0
aa(lp351
I13
aI0
aI0
aa(lp352
I22
aI0
aI0
aa(lp353
I15
aI0
aI0
aa(lp354
I35
aI0
aI0
aa(lp355
I20
aI0
aI0
aa(lp356
I28
aI0
aI0
aa(lp357
I14
aI0
aI0
aa(lp358
I23
aI0
aI0
aa(lp359
I5
aI0
aI0
aa(lp360
I18
aI0
aI0
aa(lp361
I11
aI0
aI0
aa(lp362
I14
aI0
aI0
aa(lp363
I12
aI0
aI0
aa(lp364
I15
aI0
aI0
aa(lp365
I5
aI0
aI0
aa(lp366
I15
aI0
aI0
aa(lp367
I11
aI0
aI0
aa(lp368
I12
aI0
aI0
aa(lp369
I9
aI0
aI0
aa(lp370
I13
aI0
aI0
aa(lp371
I6
aI0
aI0
aa(lp372
I18
aI0
aI0
aa(lp373
I14
aI0
aI0
aa(lp374
I18
aI0
aI0
aa(lp375
I17
aI0
aI0
aa(lp376
I16
aI0
aI0
aa(lp377
I11
aI0
aI0
aa(lp378
I15
aI0
aI0
aa(lp379
I19
aI0
aI0
aa(lp380
I9
aI0
aI0
aa(lp381
I8
aI0
aI0
aa(lp382
I9
aI0
aI0
aa(lp383
I11
aI0
aI0
aa(lp384
I10
aI0
aI0
aa(lp385
I13
aI0
aI0
aa(lp386
I11
aI0
aI0
aa(lp387
I23
aI0
aI0
aa(lp388
I12
aI0
aI0
aa(lp389
I19
aI0
aI0
aa(lp390
I8
aI0
aI0
aa(lp391
I18
aI0
aI0
aa(lp392
I20
aI0
aI0
aa(lp393
I20
aI0
aI0
aa(lp394
I8
aI0
aI0
aa(lp395
I12
aI0
aI0
aa(lp396
I7
aI0
aI0
aa(lp397
I23
aI0
aI0
aa(lp398
I40
aI0
aI0
aa(lp399
I15
aI0
aI0
aa(lp400
I11
aI0
aI0
aa(lp401
I22
aI0
aI0
aa(lp402
I32
aI0
aI0
aa(lp403
I21
aI0
aI0
aa(lp404
I14
aI0
aI0
aa(lp405
I16
aI0
aI0
aa(lp406
I15
aI0
aI0
aa(lp407
I9
aI0
aI0
aa(lp408
I24
aI0
aI0
aa(lp409
I22
aI0
aI0
aa(lp410
I17
aI0
aI0
aa(lp411
I18
aI0
aI0
aa(lp412
I17
aI0
aI0
aa(lp413
I15
aI0
aI0
aa(lp414
I7
aI0
aI0
aa(lp415
I11
aI0
aI0
aa(lp416
I11
aI0
aI0
aa(lp417
I14
aI0
aI0
aa(lp418
I14
aI0
aI0
aa(lp419
I9
aI0
aI0
aa(lp420
I10
aI0
aI0
aa(lp421
I13
aI0
aI0
aa(lp422
I17
aI0
aI0
aa(lp423
I15
aI0
aI0
aa(lp424
I24
aI0
aI0
aa(lp425
I14
aI0
aI0
aa(lp426
I18
aI0
aI0
aa(lp427
I27
aI0
aI0
aa(lp428
I8
aI0
aI0
aa(lp429
I19
aI0
aI0
aa(lp430
I12
aI0
aI0
aa(lp431
I8
aI0
aI0
aa(lp432
I11
aI0
aI0
aa(lp433
I17
aI0
aI0
aa(lp434
I15
aI0
aI0
aa(lp435
I25
aI0
aI0
aa(lp436
I16
aI0
aI0
aa(lp437
I9
aI0
aI0
aa(lp438
I32
aI0
aI0
aa(lp439
I9
aI0
aI0
aa(lp440
I8
aI0
aI0
aa(lp441
I19
aI0
aI0
aa(lp442
I26
aI0
aI0
aa(lp443
I16
aI0
aI0
aa(lp444
I12
aI0
aI0
aa(lp445
I10
aI0
aI0
aa(lp446
I13
aI0
aI0
aa(lp447
I16
aI0
aI0
aa(lp448
I8
aI0
aI0
aa(lp449
I10
aI0
aI0
aa(lp450
I13
aI0
aI0
aa(lp451
I9
aI0
aI0
aa(lp452
I16
aI0
aI0
aa(lp453
I11
aI0
aI0
aa(lp454
I16
aI0
aI0
aa(lp455
I14
aI0
aI0
aa(lp456
I10
aI0
aI0
aa(lp457
I19
aI0
aI0
aa(lp458
I20
aI0
aI0
aa(lp459
I8
aI0
aI0
aa(lp460
I12
aI0
aI0
aa(lp461
I6
aI0
aI0
aa(lp462
I16
aI0
aI0
aa(lp463
I15
aI0
aI0
aa(lp464
I11
aI0
aI0
aa(lp465
I11
aI0
aI0
aa(lp466
I8
aI0
aI0
aa(lp467
I24
aI0
aI0
aa(lp468
I6
aI0
aI0
aa(lp469
I10
aI0
aI0
aa(lp470
I12
aI0
aI0
aa(lp471
I20
aI0
aI0
aa(lp472
I22
aI0
aI0
aa(lp473
I13
aI0
aI0
aa(lp474
I8
aI0
aI0
aa(lp475
I17
aI0
aI0
aa(lp476
I8
aI0
aI0
aa(lp477
I17
aI0
aI0
aa(lp478
I5
aI0
aI0
aa(lp479
I11
aI0
aI0
aa(lp480
I17
aI0
aI0
aa(lp481
I18
aI0
aI0
aa(lp482
I25
aI0
aI0
aa(lp483
I10
aI0
aI0
aa(lp484
I18
aI0
aI0
aa(lp485
I12
aI0
aI0
aa(lp486
I22
aI0
aI0
aa(lp487
I8
aI0
aI0
aa(lp488
I12
aI0
aI0
aa(lp489
I8
aI0
aI0
aa(lp490
I9
aI0
aI0
aa(lp491
I14
aI0
aI0
aa(lp492
I14
aI0
aI0
aa(lp493
I9
aI0
aI0
aa(lp494
I14
aI0
aI0
aa(lp495
I10
aI0
aI0
aa(lp496
I12
aI0
aI0
aa(lp497
I22
aI0
aI0
aa(lp498
I11
aI0
aI0
aa(lp499
I11
aI0
aI0
aa(lp500
I11
aI0
aI0
aa(lp501
I18
aI0
aI0
aa(lp502
I9
aI0
aI0
aa(lp503
I18
aI0
aI0
aa(lp504
I21
aI0
aI0
aa(lp505
I11
aI0
aI0
aa(lp506
I14
aI0
aI0
aa(lp507
I9
aI0
aI0
aa(lp508
I10
aI0
aI0
aa(lp509
I10
aI0
aI0
aa(lp510
I13
aI0
aI0
aa(lp511
I13
aI0
aI0
aa(lp512
I12
aI0
aI0
aa(lp513
I30
aI0
aI0
aa(lp514
I11
aI0
aI0
aa(lp515
I12
aI0
aI0
aa(lp516
I34
aI0
aI0
aa(lp517
I19
aI0
aI0
aa(lp518
I19
aI0
aI0
aa(lp519
I7
aI0
aI0
aa(lp520
I16
aI0
aI0
aa(lp521
I22
aI0
aI0
aa(lp522
I11
aI0
aI0
aa(lp523
I7
aI0
aI0
aa(lp524
I46
aI0
aI0
aa(lp525
I11
aI0
aI0
aa(lp526
I16
aI0
aI0
aa(lp527
I11
aI0
aI0
aa(lp528
I9
aI0
aI0
aa(lp529
I15
aI0
aI0
aa(lp530
I18
aI0
aI0
aa(lp531
I24
aI0
aI0
aa(lp532
I24
aI0
aI0
aa(lp533
I24
aI0
aI0
aa(lp534
I16
aI0
aI0
aa(lp535
I14
aI0
aI0
aa(lp536
I10
aI0
aI0
aa(lp537
I10
aI0
aI0
aa(lp538
I36
aI0
aI0
aa(lp539
I17
aI0
aI0
aa(lp540
I10
aI0
aI0
aa(lp541
I12
aI0
aI0
aa(lp542
I20
aI0
aI0
aa(lp543
I18
aI0
aI0
aa(lp544
I12
aI0
aI0
aa(lp545
I33
aI0
aI0
aa(lp546
I16
aI0
aI0
aa(lp547
I22
aI0
aI0
aa(lp548
I18
aI0
aI0
aa(lp549
I18
aI0
aI0
aa(lp550
I8
aI0
aI0
aa(lp551
I14
aI0
aI0
aa(lp552
I8
aI0
aI0
aa(lp553
I16
aI0
aI0
aa(lp554
I14
aI0
aI0
aa(lp555
I13
aI0
aI0
aa(lp556
I16
aI0
aI0
aa(lp557
I14
aI0
aI0
aa(lp558
I23
aI0
aI0
aa(lp559
I7
aI0
aI0
aa(lp560
I16
aI0
aI0
aa(lp561
I21
aI0
aI0
aa(lp562
I15
aI0
aI0
aa(lp563
I13
aI0
aI0
aa(lp564
I13
aI0
aI0
aa(lp565
I24
aI0
aI0
aa(lp566
I13
aI0
aI0
aa(lp567
I32
aI0
aI0
aa(lp568
I16
aI0
aI0
aa(lp569
I13
aI0
aI0
aa(lp570
I13
aI0
aI0
aa(lp571
I15
aI0
aI0
aa(lp572
I16
aI0
aI0
aa(lp573
I7
aI0
aI0
aa(lp574
I12
aI0
aI0
aa(lp575
I7
aI0
aI0
aa(lp576
I10
aI0
aI0
aa(lp577
I15
aI0
aI0
aa(lp578
I10
aI0
aI0
aa(lp579
I8
aI0
aI0
aa(lp580
I13
aI0
aI0
aa(lp581
I28
aI0
aI0
aa(lp582
I12
aI0
aI0
aa(lp583
I9
aI0
aI0
aa(lp584
I8
aI0
aI0
aa(lp585
I9
aI0
aI0
aa(lp586
I16
aI0
aI0
aa(lp587
I11
aI0
aI0
aa(lp588
I17
aI0
aI0
aa(lp589
I8
aI0
aI0
aa(lp590
I16
aI0
aI0
aa(lp591
I10
aI0
aI0
aa(lp592
I11
aI0
aI0
aa(lp593
I11
aI0
aI0
aa(lp594
I9
aI0
aI0
aa(lp595
I9
aI0
aI0
aa(lp596
I10
aI0
aI0
aa(lp597
I8
aI0
aI0
aa(lp598
I9
aI0
aI0
aa(lp599
I12
aI0
aI0
aa(lp600
I14
aI0
aI0
aa(lp601
I12
aI0
aI0
aa.